target datalayout = "e-m:e-p270:32:32-p271:32:32-p272:64:64-i64:64-i128:128-f80:128-n8:16:32:64-S128"
target triple = "x86_64-pc-linux-gnu"

%struct.Mig_Man_t_ = type { ptr, i32, i32, i32, %struct.Vec_Ptr_t_, %struct.Vec_Int_t_, %struct.Vec_Int_t_, ptr, i32, i32, %struct.Vec_Int_t_, %struct.Vec_Int_t_, %struct.Vec_Int_t_, %struct.Vec_Int_t_, %struct.Vec_Int_t_, ptr }
%struct.Vec_Ptr_t_ = type { i32, i32, ptr }
%struct.Vec_Int_t_ = type { i32, i32, ptr }
%struct.Mig_Obj_t_ = type { [4 x %struct.Mig_Fan_t_] }
%struct.Mig_Fan_t_ = type { i32 }
%struct.timespec = type { i64, i64 }

@.str = private unnamed_addr constant [41 x i8] c"Nodes with small support %d (out of %d)\0A\00", align 1
@.str.1 = private unnamed_addr constant [5 x i8] c"Time\00", align 1
@.str.2 = private unnamed_addr constant [5 x i8] c"%s =\00", align 1
@.str.3 = private unnamed_addr constant [11 x i8] c"%9.2f sec\0A\00", align 1

; Function Attrs: nounwind uwtable
define internal void @Vec_IntGrow(ptr noundef %0, i32 noundef %1) #0 {
  %3 = alloca ptr, align 8
  %4 = alloca i32, align 4
  store ptr %0, ptr %3, align 8
  store i32 %1, ptr %4, align 4
  %5 = load ptr, ptr %3, align 8
  %6 = getelementptr inbounds %struct.Vec_Int_t_, ptr %5, i32 0, i32 0
  %7 = load i32, ptr %6, align 8
  %8 = load i32, ptr %4, align 4
  %9 = icmp sge i32 %7, %8
  br i1 %9, label %10, label %11

10:                                               ; preds = %2
  br label %36

11:                                               ; preds = %2
  %12 = load ptr, ptr %3, align 8
  %13 = getelementptr inbounds %struct.Vec_Int_t_, ptr %12, i32 0, i32 2
  %14 = load ptr, ptr %13, align 8
  %15 = icmp ne ptr %14, null
  br i1 %15, label %16, label %24

16:                                               ; preds = %11
  %17 = load ptr, ptr %3, align 8
  %18 = getelementptr inbounds %struct.Vec_Int_t_, ptr %17, i32 0, i32 2
  %19 = load ptr, ptr %18, align 8
  %20 = load i32, ptr %4, align 4
  %21 = sext i32 %20 to i64
  %22 = mul i64 4, %21
  %23 = call ptr @realloc(ptr noundef %19, i64 noundef %22) #10
  br label %29

24:                                               ; preds = %11
  %25 = load i32, ptr %4, align 4
  %26 = sext i32 %25 to i64
  %27 = mul i64 4, %26
  %28 = call noalias ptr @malloc(i64 noundef %27) #11
  br label %29

29:                                               ; preds = %24, %16
  %30 = phi ptr [ %23, %16 ], [ %28, %24 ]
  %31 = load ptr, ptr %3, align 8
  %32 = getelementptr inbounds %struct.Vec_Int_t_, ptr %31, i32 0, i32 2
  store ptr %30, ptr %32, align 8
  %33 = load i32, ptr %4, align 4
  %34 = load ptr, ptr %3, align 8
  %35 = getelementptr inbounds %struct.Vec_Int_t_, ptr %34, i32 0, i32 0
  store i32 %33, ptr %35, align 8
  br label %36

36:                                               ; preds = %29, %10
  ret void
}

; Function Attrs: nounwind uwtable
define internal i32 @Mig_FanId(ptr noundef %0, i32 noundef %1) #0 {
  %3 = alloca ptr, align 8
  %4 = alloca i32, align 4
  store ptr %0, ptr %3, align 8
  store i32 %1, ptr %4, align 4
  %5 = load ptr, ptr %3, align 8
  %6 = getelementptr inbounds %struct.Mig_Obj_t_, ptr %5, i32 0, i32 0
  %7 = load i32, ptr %4, align 4
  %8 = sext i32 %7 to i64
  %9 = getelementptr inbounds [4 x %struct.Mig_Fan_t_], ptr %6, i64 0, i64 %8
  %10 = load i32, ptr %9, align 4
  %11 = lshr i32 %10, 1
  ret i32 %11
}

; Function Attrs: nounwind uwtable
define internal i32 @Mig_IdCell(i32 noundef %0) #0 {
  %2 = alloca i32, align 4
  store i32 %0, ptr %2, align 4
  %3 = load i32, ptr %2, align 4
  %4 = and i32 %3, 4095
  ret i32 %4
}

; Function Attrs: nounwind uwtable
define internal void @Vec_IntFill(ptr noundef %0, i32 noundef %1, i32 noundef %2) #0 {
  %4 = alloca ptr, align 8
  %5 = alloca i32, align 4
  %6 = alloca i32, align 4
  %7 = alloca i32, align 4
  store ptr %0, ptr %4, align 8
  store i32 %1, ptr %5, align 4
  store i32 %2, ptr %6, align 4
  %8 = load ptr, ptr %4, align 8
  %9 = load i32, ptr %5, align 4
  call void @Vec_IntGrow(ptr noundef %8, i32 noundef %9)
  store i32 0, ptr %7, align 4
  br label %10

10:                                               ; preds = %22, %3
  %11 = load i32, ptr %7, align 4
  %12 = load i32, ptr %5, align 4
  %13 = icmp slt i32 %11, %12
  br i1 %13, label %14, label %25

14:                                               ; preds = %10
  %15 = load i32, ptr %6, align 4
  %16 = load ptr, ptr %4, align 8
  %17 = getelementptr inbounds %struct.Vec_Int_t_, ptr %16, i32 0, i32 2
  %18 = load ptr, ptr %17, align 8
  %19 = load i32, ptr %7, align 4
  %20 = sext i32 %19 to i64
  %21 = getelementptr inbounds i32, ptr %18, i64 %20
  store i32 %15, ptr %21, align 4
  br label %22

22:                                               ; preds = %14
  %23 = load i32, ptr %7, align 4
  %24 = add nsw i32 %23, 1
  store i32 %24, ptr %7, align 4
  br label %10, !llvm.loop !11

25:                                               ; preds = %10
  %26 = load i32, ptr %5, align 4
  %27 = load ptr, ptr %4, align 8
  %28 = getelementptr inbounds %struct.Vec_Int_t_, ptr %27, i32 0, i32 1
  store i32 %26, ptr %28, align 4
  ret void
}

; Function Attrs: nounwind uwtable
define internal i32 @Mig_ManObjNum(ptr noundef %0) #0 {
  %2 = alloca ptr, align 8
  store ptr %0, ptr %2, align 8
  %3 = load ptr, ptr %2, align 8
  %4 = getelementptr inbounds %struct.Mig_Man_t_, ptr %3, i32 0, i32 1
  %5 = load i32, ptr %4, align 8
  ret i32 %5
}

; Function Attrs: nounwind uwtable
define internal i32 @Vec_IntSize(ptr noundef %0) #0 {
  %2 = alloca ptr, align 8
  store ptr %0, ptr %2, align 8
  %3 = load ptr, ptr %2, align 8
  %4 = getelementptr inbounds %struct.Vec_Int_t_, ptr %3, i32 0, i32 1
  %5 = load i32, ptr %4, align 4
  ret i32 %5
}

; Function Attrs: nounwind uwtable
define internal i32 @Mig_ObjId(ptr noundef %0) #0 {
  %2 = alloca ptr, align 8
  store ptr %0, ptr %2, align 8
  %3 = load ptr, ptr %2, align 8
  %4 = call i32 @Mig_FanId(ptr noundef %3, i32 noundef 3)
  ret i32 %4
}

; Function Attrs: nounwind uwtable
define internal ptr @Mig_ObjMan(ptr noundef %0) #0 {
  %2 = alloca ptr, align 8
  store ptr %0, ptr %2, align 8
  %3 = load ptr, ptr %2, align 8
  %4 = load ptr, ptr %2, align 8
  %5 = call i32 @Mig_ObjId(ptr noundef %4)
  %6 = call i32 @Mig_IdCell(i32 noundef %5)
  %7 = sext i32 %6 to i64
  %8 = sub i64 0, %7
  %9 = getelementptr inbounds %struct.Mig_Obj_t_, ptr %3, i64 %8
  %10 = getelementptr inbounds %struct.Mig_Obj_t_, ptr %9, i64 -1
  %11 = load ptr, ptr %10, align 8
  ret ptr %11
}

; Function Attrs: nounwind uwtable
define internal void @Mig_ObjIncrementTravId(ptr noundef %0) #0 {
  %2 = alloca ptr, align 8
  store ptr %0, ptr %2, align 8
  %3 = load ptr, ptr %2, align 8
  %4 = call ptr @Mig_ObjMan(ptr noundef %3)
  %5 = getelementptr inbounds %struct.Mig_Man_t_, ptr %4, i32 0, i32 10
  %6 = getelementptr inbounds %struct.Vec_Int_t_, ptr %5, i32 0, i32 2
  %7 = load ptr, ptr %6, align 8
  %8 = icmp eq ptr %7, null
  br i1 %8, label %9, label %17

9:                                                ; preds = %1
  %10 = load ptr, ptr %2, align 8
  %11 = call ptr @Mig_ObjMan(ptr noundef %10)
  %12 = getelementptr inbounds %struct.Mig_Man_t_, ptr %11, i32 0, i32 10
  %13 = load ptr, ptr %2, align 8
  %14 = call ptr @Mig_ObjMan(ptr noundef %13)
  %15 = call i32 @Mig_ManObjNum(ptr noundef %14)
  %16 = add nsw i32 %15, 500
  call void @Vec_IntFill(ptr noundef %12, i32 noundef %16, i32 noundef 0)
  br label %17

17:                                               ; preds = %9, %1
  %18 = load ptr, ptr %2, align 8
  %19 = call ptr @Mig_ObjMan(ptr noundef %18)
  %20 = getelementptr inbounds %struct.Mig_Man_t_, ptr %19, i32 0, i32 9
  %21 = load i32, ptr %20, align 4
  %22 = add nsw i32 %21, 1
  store i32 %22, ptr %20, align 4
  ret void
}

; Function Attrs: nounwind uwtable
define internal i32 @Mig_FanIsNone(ptr noundef %0, i32 noundef %1) #0 {
  %3 = alloca ptr, align 8
  %4 = alloca i32, align 4
  store ptr %0, ptr %3, align 8
  store i32 %1, ptr %4, align 4
  %5 = load ptr, ptr %3, align 8
  %6 = getelementptr inbounds %struct.Mig_Obj_t_, ptr %5, i32 0, i32 0
  %7 = load i32, ptr %4, align 4
  %8 = sext i32 %7 to i64
  %9 = getelementptr inbounds [4 x %struct.Mig_Fan_t_], ptr %6, i64 0, i64 %8
  %10 = load i32, ptr %9, align 4
  %11 = lshr i32 %10, 1
  %12 = icmp eq i32 %11, 2147483647
  %13 = zext i1 %12 to i32
  ret i32 %13
}

; Function Attrs: nounwind uwtable
define internal void @Abc_PrintTime(i32 noundef %0, ptr noundef %1, i64 noundef %2) #0 {
  %4 = alloca i32, align 4
  %5 = alloca ptr, align 8
  %6 = alloca i64, align 8
  store i32 %0, ptr %4, align 4
  store ptr %1, ptr %5, align 8
  store i64 %2, ptr %6, align 8
  %7 = load ptr, ptr %5, align 8
  call void (i32, ptr, ...) @Abc_Print(i32 noundef 1, ptr noundef @.str.2, ptr noundef %7)
  %8 = load i64, ptr %6, align 8
  %9 = sitofp i64 %8 to double
  %10 = fmul double 1.000000e+00, %9
  %11 = fdiv double %10, 1.000000e+06
  call void (i32, ptr, ...) @Abc_Print(i32 noundef 1, ptr noundef @.str.3, double noundef %11)
  ret void
}

; Function Attrs: nounwind uwtable
define internal i32 @Mig_ManNodeNum(ptr noundef %0) #0 {
  %2 = alloca ptr, align 8
  store ptr %0, ptr %2, align 8
  %3 = load ptr, ptr %2, align 8
  %4 = getelementptr inbounds %struct.Mig_Man_t_, ptr %3, i32 0, i32 1
  %5 = load i32, ptr %4, align 8
  %6 = load ptr, ptr %2, align 8
  %7 = getelementptr inbounds %struct.Mig_Man_t_, ptr %6, i32 0, i32 5
  %8 = call i32 @Vec_IntSize(ptr noundef %7)
  %9 = sub nsw i32 %5, %8
  %10 = load ptr, ptr %2, align 8
  %11 = getelementptr inbounds %struct.Mig_Man_t_, ptr %10, i32 0, i32 6
  %12 = call i32 @Vec_IntSize(ptr noundef %11)
  %13 = sub nsw i32 %9, %12
  %14 = sub nsw i32 %13, 1
  ret i32 %14
}

; Function Attrs: nounwind uwtable
define i32 @Mig_ManSuppSizeOne(ptr noundef %0) #0 {
  %2 = alloca ptr, align 8
  store ptr %0, ptr %2, align 8
  %3 = load ptr, ptr %2, align 8
  call void @Mig_ObjIncrementTravId(ptr noundef %3)
  %4 = load ptr, ptr %2, align 8
  %5 = call ptr @Mig_ObjMan(ptr noundef %4)
  %6 = load ptr, ptr %2, align 8
  %7 = call i32 @Mig_ObjId(ptr noundef %6)
  %8 = call i32 @Mig_ManSuppSize2_rec(ptr noundef %5, i32 noundef %7)
  ret i32 %8
}

; Function Attrs: nounwind uwtable
define internal i32 @Mig_ObjIsNode(ptr noundef %0) #0 {
  %2 = alloca ptr, align 8
  store ptr %0, ptr %2, align 8
  %3 = load ptr, ptr %2, align 8
  %4 = call i32 @Mig_FanIsNone(ptr noundef %3, i32 noundef 1)
  %5 = icmp ne i32 %4, 0
  %6 = xor i1 %5, true
  %7 = zext i1 %6 to i32
  ret i32 %7
}

; Function Attrs: nounwind uwtable
define internal i32 @Mig_ObjIsNone(ptr noundef %0) #0 {
  %2 = alloca ptr, align 8
  store ptr %0, ptr %2, align 8
  %3 = load ptr, ptr %2, align 8
  %4 = call i32 @Mig_FanIsNone(ptr noundef %3, i32 noundef 3)
  ret i32 %4
}

; Function Attrs: nounwind uwtable
define internal ptr @Vec_PtrEntry(ptr noundef %0, i32 noundef %1) #0 {
  %3 = alloca ptr, align 8
  %4 = alloca i32, align 4
  store ptr %0, ptr %3, align 8
  store i32 %1, ptr %4, align 4
  %5 = load ptr, ptr %3, align 8
  %6 = getelementptr inbounds %struct.Vec_Ptr_t_, ptr %5, i32 0, i32 2
  %7 = load ptr, ptr %6, align 8
  %8 = load i32, ptr %4, align 4
  %9 = sext i32 %8 to i64
  %10 = getelementptr inbounds ptr, ptr %7, i64 %9
  %11 = load ptr, ptr %10, align 8
  ret ptr %11
}

; Function Attrs: nounwind uwtable
define internal i32 @Vec_PtrSize(ptr noundef %0) #0 {
  %2 = alloca ptr, align 8
  store ptr %0, ptr %2, align 8
  %3 = load ptr, ptr %2, align 8
  %4 = getelementptr inbounds %struct.Vec_Ptr_t_, ptr %3, i32 0, i32 1
  %5 = load i32, ptr %4, align 4
  ret i32 %5
}

; Function Attrs: nounwind uwtable
define internal i64 @Abc_Clock() #0 {
  %1 = alloca i64, align 8
  %2 = alloca %struct.timespec, align 8
  %3 = alloca i64, align 8
  %4 = call i32 @clock_gettime(i32 noundef 1, ptr noundef %2) #12
  %5 = icmp slt i32 %4, 0
  br i1 %5, label %6, label %7

6:                                                ; preds = %0
  store i64 -1, ptr %1, align 8
  br label %18

7:                                                ; preds = %0
  %8 = getelementptr inbounds %struct.timespec, ptr %2, i32 0, i32 0
  %9 = load i64, ptr %8, align 8
  %10 = mul nsw i64 %9, 1000000
  store i64 %10, ptr %3, align 8
  %11 = getelementptr inbounds %struct.timespec, ptr %2, i32 0, i32 1
  %12 = load i64, ptr %11, align 8
  %13 = mul nsw i64 %12, 1000000
  %14 = sdiv i64 %13, 1000000000
  %15 = load i64, ptr %3, align 8
  %16 = add nsw i64 %15, %14
  store i64 %16, ptr %3, align 8
  %17 = load i64, ptr %3, align 8
  store i64 %17, ptr %1, align 8
  br label %18

18:                                               ; preds = %7, %6
  %19 = load i64, ptr %1, align 8
  ret i64 %19
}

; Function Attrs: nounwind uwtable
define i32 @Mig_ManSuppSizeTest(ptr noundef %0) #0 {
  %2 = alloca ptr, align 8
  %3 = alloca ptr, align 8
  %4 = alloca i32, align 4
  %5 = alloca i64, align 8
  store ptr %0, ptr %2, align 8
  store i32 0, ptr %4, align 4
  %6 = call i64 @Abc_Clock()
  store i64 %6, ptr %5, align 8
  %7 = load ptr, ptr %2, align 8
  %8 = getelementptr inbounds %struct.Mig_Man_t_, ptr %7, i32 0, i32 8
  store i32 0, ptr %8, align 8
  br label %9

9:                                                ; preds = %54, %1
  %10 = load ptr, ptr %2, align 8
  %11 = getelementptr inbounds %struct.Mig_Man_t_, ptr %10, i32 0, i32 8
  %12 = load i32, ptr %11, align 8
  %13 = load ptr, ptr %2, align 8
  %14 = getelementptr inbounds %struct.Mig_Man_t_, ptr %13, i32 0, i32 4
  %15 = call i32 @Vec_PtrSize(ptr noundef %14)
  %16 = icmp slt i32 %12, %15
  br i1 %16, label %17, label %27

17:                                               ; preds = %9
  %18 = load ptr, ptr %2, align 8
  %19 = getelementptr inbounds %struct.Mig_Man_t_, ptr %18, i32 0, i32 4
  %20 = load ptr, ptr %2, align 8
  %21 = getelementptr inbounds %struct.Mig_Man_t_, ptr %20, i32 0, i32 8
  %22 = load i32, ptr %21, align 8
  %23 = call ptr @Vec_PtrEntry(ptr noundef %19, i32 noundef %22)
  %24 = load ptr, ptr %2, align 8
  %25 = getelementptr inbounds %struct.Mig_Man_t_, ptr %24, i32 0, i32 7
  store ptr %23, ptr %25, align 8
  %26 = icmp ne ptr %23, null
  br label %27

27:                                               ; preds = %17, %9
  %28 = phi i1 [ false, %9 ], [ %26, %17 ]
  br i1 %28, label %29, label %59

29:                                               ; preds = %27
  %30 = load ptr, ptr %2, align 8
  %31 = getelementptr inbounds %struct.Mig_Man_t_, ptr %30, i32 0, i32 7
  %32 = load ptr, ptr %31, align 8
  store ptr %32, ptr %3, align 8
  br label %33

33:                                               ; preds = %50, %29
  %34 = load ptr, ptr %3, align 8
  %35 = call i32 @Mig_ObjIsNone(ptr noundef %34)
  %36 = icmp ne i32 %35, 0
  %37 = xor i1 %36, true
  br i1 %37, label %38, label %53

38:                                               ; preds = %33
  %39 = load ptr, ptr %3, align 8
  %40 = call i32 @Mig_ObjIsNode(ptr noundef %39)
  %41 = icmp ne i32 %40, 0
  br i1 %41, label %42, label %49

42:                                               ; preds = %38
  %43 = load ptr, ptr %3, align 8
  %44 = call i32 @Mig_ManSuppSizeOne(ptr noundef %43)
  %45 = icmp sle i32 %44, 16
  %46 = zext i1 %45 to i32
  %47 = load i32, ptr %4, align 4
  %48 = add nsw i32 %47, %46
  store i32 %48, ptr %4, align 4
  br label %49

49:                                               ; preds = %42, %38
  br label %50

50:                                               ; preds = %49
  %51 = load ptr, ptr %3, align 8
  %52 = getelementptr inbounds %struct.Mig_Obj_t_, ptr %51, i32 1
  store ptr %52, ptr %3, align 8
  br label %33, !llvm.loop !12

53:                                               ; preds = %33
  br label %54

54:                                               ; preds = %53
  %55 = load ptr, ptr %2, align 8
  %56 = getelementptr inbounds %struct.Mig_Man_t_, ptr %55, i32 0, i32 8
  %57 = load i32, ptr %56, align 8
  %58 = add nsw i32 %57, 1
  store i32 %58, ptr %56, align 8
  br label %9, !llvm.loop !13

59:                                               ; preds = %27
  %60 = load i32, ptr %4, align 4
  %61 = load ptr, ptr %2, align 8
  %62 = call i32 @Mig_ManNodeNum(ptr noundef %61)
  %63 = call i32 (ptr, ...) @printf(ptr noundef @.str, i32 noundef %60, i32 noundef %62)
  %64 = call i64 @Abc_Clock()
  %65 = load i64, ptr %5, align 8
  %66 = sub nsw i64 %64, %65
  call void @Abc_PrintTime(i32 noundef 1, ptr noundef @.str.1, i64 noundef %66)
  %67 = load i32, ptr %4, align 4
  ret i32 %67
}