; Function Attrs: nounwind uwtable
define noundef i32 @Mig_ManSuppSizeTest(ptr noundef captures(none) initializes((80, 84)) %0) local_unnamed_addr #2 {
  %2 = alloca %struct.timespec, align 8
  %3 = alloca %struct.timespec, align 8
  call void @llvm.lifetime.start.p0(i64 16, ptr nonnull %3)
  %4 = call i32 @clock_gettime(i32 noundef 1, ptr noundef nonnull %3) #16
  %5 = icmp slt i32 %4, 0
  br i1 %5, label %Abc_Clock.exit, label %6

6:                                                ; preds = %1
  %7 = load i64, ptr %3, align 8
  %.neg24 = mul i64 %7, -1000000
  %8 = getelementptr inbounds nuw i8, ptr %3, i64 8
  %9 = load i64, ptr %8, align 8
  %.neg = sdiv i64 %9, -1000
  %.neg25 = add i64 %.neg, %.neg24
  br label %Abc_Clock.exit

Abc_Clock.exit:                                   ; preds = %1, %6
  %.0.i.neg = phi i64 [ %.neg25, %6 ], [ 1, %1 ]
  call void @llvm.lifetime.end.p0(i64 16, ptr nonnull %3)
  %10 = getelementptr inbounds nuw i8, ptr %0, i64 80
  %11 = getelementptr i8, ptr %0, i64 32
  %12 = getelementptr i8, ptr %0, i64 28
  store i32 0, ptr %10, align 8
  %.val30 = load i32, ptr %12, align 4
  %13 = icmp sgt i32 %.val30, 0
  br i1 %13, label %.lr.ph33, label %.critedge

.lr.ph33:                                         ; preds = %Abc_Clock.exit
  %14 = getelementptr inbounds nuw i8, ptr %0, i64 72
  br label %15

15:                                               ; preds = %.lr.ph33, %._crit_edge
  %.val37 = phi i32 [ %.val30, %.lr.ph33 ], [ %.val, %._crit_edge ]
  %.01632 = phi i32 [ 0, %.lr.ph33 ], [ %.1.lcssa, %._crit_edge ]
  %storemerge31 = phi i32 [ 0, %.lr.ph33 ], [ %69, %._crit_edge ]
  %.val20 = load ptr, ptr %11, align 8
  %16 = sext i32 %storemerge31 to i64
  %17 = getelementptr inbounds ptr, ptr %.val20, i64 %16
  %18 = load ptr, ptr %17, align 8
  store ptr %18, ptr %14, align 8
  %.not = icmp eq ptr %18, null
  br i1 %.not, label %.critedge, label %.preheader

.preheader:                                       ; preds = %15
  %19 = getelementptr i8, ptr %18, i64 12
  %.0.val26 = load i32, ptr %19, align 4
  %20 = icmp ult i32 %.0.val26, -2
  br i1 %20, label %.lr.ph, label %._crit_edge

.lr.ph:                                           ; preds = %.preheader, %64
  %.0.val29 = phi i32 [ %.0.val, %64 ], [ %.0.val26, %.preheader ]
  %21 = phi ptr [ %66, %64 ], [ %19, %.preheader ]
  %.028 = phi ptr [ %65, %64 ], [ %18, %.preheader ]
  %.127 = phi i32 [ %.2, %64 ], [ %.01632, %.preheader ]
  %22 = getelementptr i8, ptr %.028, i64 4
  %.0.val21 = load i32, ptr %22, align 4
  %23 = icmp ugt i32 %.0.val21, -3
  br i1 %23, label %64, label %24

24:                                               ; preds = %.lr.ph
  %25 = lshr i32 %.0.val29, 1
  %26 = and i32 %25, 4095
  %27 = zext nneg i32 %26 to i64
  %28 = sub nsw i64 0, %27
  %29 = getelementptr inbounds %struct.Mig_Obj_t_, ptr %.028, i64 %28
  %30 = getelementptr inbounds i8, ptr %29, i64 -16
  %31 = load ptr, ptr %30, align 8
  %32 = getelementptr inbounds nuw i8, ptr %31, i64 96
  %33 = load ptr, ptr %32, align 8
  %34 = icmp eq ptr %33, null
  br i1 %34, label %35, label %Mig_ManSuppSizeOne.exit

35:                                               ; preds = %24
  %36 = getelementptr inbounds nuw i8, ptr %31, i64 88
  %37 = getelementptr i8, ptr %31, i64 8
  %.val.i.i = load i32, ptr %37, align 8
  %38 = add nsw i32 %.val.i.i, 500
  %39 = load i32, ptr %36, align 8
  %.not.i.i.i.i = icmp slt i32 %39, %38
  br i1 %.not.i.i.i.i, label %40, label %Vec_IntGrow.exit.i.i.i

40:                                               ; preds = %35
  %41 = sext i32 %38 to i64
  %42 = shl nsw i64 %41, 2
  %43 = call noalias ptr @malloc(i64 noundef %42) #15
  store ptr %43, ptr %32, align 8
  store i32 %38, ptr %36, align 8
  br label %Vec_IntGrow.exit.i.i.i

Vec_IntGrow.exit.i.i.i:                           ; preds = %40, %35
  %44 = icmp sgt i32 %.val.i.i, -500
  br i1 %44, label %.lr.ph.i.i.i, label %Vec_IntFill.exit.i.i

.lr.ph.i.i.i:                                     ; preds = %Vec_IntGrow.exit.i.i.i
  %wide.trip.count.i.i.i = zext nneg i32 %38 to i64
  br label %45

45:                                               ; preds = %45, %.lr.ph.i.i.i
  %indvars.iv.i.i.i = phi i64 [ 0, %.lr.ph.i.i.i ], [ %indvars.iv.next.i.i.i, %45 ]
  %46 = load ptr, ptr %32, align 8
  %47 = getelementptr inbounds nuw i32, ptr %46, i64 %indvars.iv.i.i.i
  store i32 0, ptr %47, align 4
  %indvars.iv.next.i.i.i = add nuw nsw i64 %indvars.iv.i.i.i, 1
  %exitcond.not.i.i.i = icmp eq i64 %indvars.iv.next.i.i.i, %wide.trip.count.i.i.i
  br i1 %exitcond.not.i.i.i, label %Vec_IntFill.exit.i.i, label %45, !llvm.loop !8

Vec_IntFill.exit.i.i:                             ; preds = %45, %Vec_IntGrow.exit.i.i.i
  %48 = getelementptr inbounds nuw i8, ptr %31, i64 92
  store i32 %38, ptr %48, align 4
  %.val.i6.pre.i.i = load i32, ptr %21, align 4
  %.pre.i.i = lshr i32 %.val.i6.pre.i.i, 1
  %.pre8.i.i = and i32 %.pre.i.i, 4095
  %.pre10.i.i = zext nneg i32 %.pre8.i.i to i64
  %.pre12.i.i = sub nsw i64 0, %.pre10.i.i
  %.phi.trans.insert.i = getelementptr inbounds %struct.Mig_Obj_t_, ptr %.028, i64 %.pre12.i.i
  %.phi.trans.insert4.i = getelementptr inbounds i8, ptr %.phi.trans.insert.i, i64 -16
  %.pre.i = load ptr, ptr %.phi.trans.insert4.i, align 8
  br label %Mig_ManSuppSizeOne.exit

Mig_ManSuppSizeOne.exit:                          ; preds = %24, %Vec_IntFill.exit.i.i
  %49 = phi ptr [ %.pre.i, %Vec_IntFill.exit.i.i ], [ %31, %24 ]
  %50 = getelementptr inbounds nuw i8, ptr %49, i64 84
  %51 = load i32, ptr %50, align 4
  %52 = add nsw i32 %51, 1
  store i32 %52, ptr %50, align 4
  %.val.i3.i = load i32, ptr %21, align 4
  %53 = lshr i32 %.val.i3.i, 1
  %54 = and i32 %53, 4095
  %55 = zext nneg i32 %54 to i64
  %56 = sub nsw i64 0, %55
  %57 = getelementptr inbounds %struct.Mig_Obj_t_, ptr %.028, i64 %56
  %58 = getelementptr inbounds i8, ptr %57, i64 -16
  %59 = load ptr, ptr %58, align 8
  %60 = call i32 @Mig_ManSuppSize2_rec(ptr noundef %59, i32 noundef %53)
  %61 = icmp slt i32 %60, 17
  %62 = zext i1 %61 to i32
  %63 = add nsw i32 %.127, %62
  br label %64

64:                                               ; preds = %.lr.ph, %Mig_ManSuppSizeOne.exit
  %.2 = phi i32 [ %63, %Mig_ManSuppSizeOne.exit ], [ %.127, %.lr.ph ]
  %65 = getelementptr inbounds nuw i8, ptr %.028, i64 16
  %66 = getelementptr i8, ptr %.028, i64 28
  %.0.val = load i32, ptr %66, align 4
  %67 = icmp ult i32 %.0.val, -2
  br i1 %67, label %.lr.ph, label %._crit_edge.loopexit, !llvm.loop !12

._crit_edge.loopexit:                             ; preds = %64
  %.pre = load i32, ptr %10, align 8
  %.val.pre = load i32, ptr %12, align 4
  br label %._crit_edge

._crit_edge:                                      ; preds = %._crit_edge.loopexit, %.preheader
  %.val = phi i32 [ %.val37, %.preheader ], [ %.val.pre, %._crit_edge.loopexit ]
  %68 = phi i32 [ %storemerge31, %.preheader ], [ %.pre, %._crit_edge.loopexit ]
  %.1.lcssa = phi i32 [ %.01632, %.preheader ], [ %.2, %._crit_edge.loopexit ]
  %69 = add nsw i32 %68, 1
  store i32 %69, ptr %10, align 8
  %70 = icmp slt i32 %69, %.val
  br i1 %70, label %15, label %.critedge, !llvm.loop !13

.critedge:                                        ; preds = %15, %._crit_edge, %Abc_Clock.exit
  %.016.lcssa = phi i32 [ 0, %Abc_Clock.exit ], [ %.1.lcssa, %._crit_edge ], [ %.01632, %15 ]
  %71 = getelementptr inbounds nuw i8, ptr %0, i64 8
  %72 = load i32, ptr %71, align 8
  %73 = getelementptr i8, ptr %0, i64 44
  %.val.i = load i32, ptr %73, align 4
  %74 = getelementptr i8, ptr %0, i64 60
  %.val3.i = load i32, ptr %74, align 4
  %75 = add i32 %.val3.i, %.val.i
  %76 = xor i32 %75, -1
  %77 = add i32 %72, %76
  %78 = call i32 (ptr, ...) @printf(ptr noundef nonnull dereferenceable(1) @.str, i32 noundef %.016.lcssa, i32 noundef %77)
  call void @llvm.lifetime.start.p0(i64 16, ptr nonnull %2)
  %79 = call i32 @clock_gettime(i32 noundef 1, ptr noundef nonnull %2) #16
  %80 = icmp slt i32 %79, 0
  br i1 %80, label %Abc_Clock.exit23, label %81

81:                                               ; preds = %.critedge
  %82 = load i64, ptr %2, align 8
  %83 = mul nsw i64 %82, 1000000
  %84 = getelementptr inbounds nuw i8, ptr %2, i64 8
  %85 = load i64, ptr %84, align 8
  %86 = sdiv i64 %85, 1000
  %87 = add nsw i64 %86, %83
  br label %Abc_Clock.exit23

Abc_Clock.exit23:                                 ; preds = %.critedge, %81
  %.0.i22 = phi i64 [ %87, %81 ], [ -1, %.critedge ]
  call void @llvm.lifetime.end.p0(i64 16, ptr nonnull %2)
  %88 = add i64 %.0.i22, %.0.i.neg
  call void (i32, ptr, ...) @Abc_Print(i32 poison, ptr noundef nonnull @.str.2, ptr noundef nonnull @.str.1)
  %89 = sitofp i64 %88 to double
  %90 = fdiv double %89, 1.000000e+06
  call void (i32, ptr, ...) @Abc_Print(i32 poison, ptr noundef nonnull @.str.3, double noundef %90)
  ret i32 %.016.lcssa
}